target datalayout = "e-m:e-p270:32:32-p271:32:32-p272:64:64-i64:64-i128:128-f80:128-n8:16:32:64-S128"
target triple = "x86_64-unknown-linux-gnu"

%"class.std::set.0" = type { %"class.std::_Rb_tree.1" }
%"class.std::_Rb_tree.1" = type { %"struct.std::_Rb_tree<QuantLib::Observer *, QuantLib::Observer *, std::_Identity<QuantLib::Observer *>, std::less<QuantLib::Observer *>>::_Rb_tree_impl" }
%"struct.std::_Rb_tree<QuantLib::Observer *, QuantLib::Observer *, std::_Identity<QuantLib::Observer *>, std::less<QuantLib::Observer *>>::_Rb_tree_impl" = type { [8 x i8], %"struct.std::_Rb_tree_header" }
%"struct.std::_Rb_tree_header" = type { %"struct.std::_Rb_tree_node_base", i64 }
%"struct.std::_Rb_tree_node_base" = type { i32, ptr, ptr, ptr }
%"class.std::set" = type { %"class.std::_Rb_tree" }
%"class.std::_Rb_tree" = type { %"struct.std::_Rb_tree<boost::shared_ptr<QuantLib::Observable>, boost::shared_ptr<QuantLib::Observable>, std::_Identity<boost::shared_ptr<QuantLib::Observable>>, std::less<boost::shared_ptr<QuantLib::Observable>>>::_Rb_tree_impl" }
%"struct.std::_Rb_tree<boost::shared_ptr<QuantLib::Observable>, boost::shared_ptr<QuantLib::Observable>, std::_Identity<boost::shared_ptr<QuantLib::Observable>>, std::less<boost::shared_ptr<QuantLib::Observable>>>::_Rb_tree_impl" = type { [8 x i8], %"struct.std::_Rb_tree_header" }
%"class.boost::detail::shared_count" = type { ptr }
%"class.QuantLib::Observable" = type { ptr, %"class.std::set.0" }
%"class.QuantLib::StochasticProcess1D" = type { %"class.QuantLib::StochasticProcess", %"class.boost::shared_ptr.7" }
%"class.QuantLib::StochasticProcess" = type { %"class.QuantLib::Observer", %"class.QuantLib::Observable", %"class.boost::shared_ptr.6" }
%"class.QuantLib::Observer" = type { ptr, %"class.std::set" }
%"class.boost::shared_ptr.6" = type { ptr, %"class.boost::detail::shared_count" }
%"class.boost::shared_ptr.7" = type { ptr, %"class.boost::detail::shared_count" }
%"class.boost::shared_ptr.10" = type { ptr, %"class.boost::detail::shared_count" }
%"class.QuantLib::Handle" = type { %"class.boost::shared_ptr.11" }
%"class.boost::shared_ptr.11" = type { ptr, %"class.boost::detail::shared_count" }
%"class.QuantLib::HullWhiteForwardProcess" = type { %"class.QuantLib::ForwardMeasureProcess1D", %"class.boost::shared_ptr.10", %"class.QuantLib::Handle", double, double }
%"class.QuantLib::ForwardMeasureProcess1D" = type { %"class.QuantLib::StochasticProcess1D", double }

@.str.6 = private unnamed_addr constant [8 x i8] c"px != 0\00", align 1
@.str.7 = private unnamed_addr constant [102 x i8] c"generated/home/dtcxzyw/WorkSpace/SDK/vcpkg/installed/x64-linux/include/boost/smart_ptr/shared_ptr.hpp\00", align 1

; Function Attrs: mustprogress nounwind uwtable
define linkonce_odr noundef double @_ZNSt14numeric_limitsIdE7epsilonEv() #1 comdat align 2 {
entry:
  ret double 0x3CB0000000000000
}

; Function Attrs: mustprogress nounwind uwtable
define noundef double @_ZNK8QuantLib23HullWhiteForwardProcess3M_TEddd(ptr noundef nonnull align 8 dereferenceable(200) %this, double noundef %s, double noundef %t, double noundef %T) #1 align 2 {
entry:
  %retval = alloca double, align 8
  %this.addr = alloca ptr, align 8
  %s.addr = alloca double, align 8
  %t.addr = alloca double, align 8
  %T.addr = alloca double, align 8
  %coeff = alloca double, align 8
  %exp1 = alloca double, align 8
  %exp2 = alloca double, align 8
  %exp3 = alloca double, align 8
  %coeff24 = alloca double, align 8
  store ptr %this, ptr %this.addr, align 8, !tbaa !3
  store double %s, ptr %s.addr, align 8, !tbaa !12
  store double %t, ptr %t.addr, align 8, !tbaa !12
  store double %T, ptr %T.addr, align 8, !tbaa !12
  %this1 = load ptr, ptr %this.addr, align 8
  %a_ = getelementptr inbounds nuw %"class.QuantLib::HullWhiteForwardProcess", ptr %this1, i32 0, i32 3
  %0 = load double, ptr %a_, align 8, !tbaa !53
  %call = call noundef double @_ZNSt14numeric_limitsIdE7epsilonEv() #14
  %cmp = fcmp ogt double %0, %call
  br i1 %cmp, label %if.then, label %if.else

if.then:                                          ; preds = %entry
  call void @llvm.lifetime.start.p0(i64 8, ptr %coeff) #14
  %sigma_ = getelementptr inbounds nuw %"class.QuantLib::HullWhiteForwardProcess", ptr %this1, i32 0, i32 4
  %1 = load double, ptr %sigma_, align 8, !tbaa !56
  %sigma_2 = getelementptr inbounds nuw %"class.QuantLib::HullWhiteForwardProcess", ptr %this1, i32 0, i32 4
  %2 = load double, ptr %sigma_2, align 8, !tbaa !56
  %mul = fmul double %1, %2
  %a_3 = getelementptr inbounds nuw %"class.QuantLib::HullWhiteForwardProcess", ptr %this1, i32 0, i32 3
  %3 = load double, ptr %a_3, align 8, !tbaa !53
  %a_4 = getelementptr inbounds nuw %"class.QuantLib::HullWhiteForwardProcess", ptr %this1, i32 0, i32 3
  %4 = load double, ptr %a_4, align 8, !tbaa !53
  %mul5 = fmul double %3, %4
  %div = fdiv double %mul, %mul5
  store double %div, ptr %coeff, align 8, !tbaa !12
  call void @llvm.lifetime.start.p0(i64 8, ptr %exp1) #14
  %a_6 = getelementptr inbounds nuw %"class.QuantLib::HullWhiteForwardProcess", ptr %this1, i32 0, i32 3
  %5 = load double, ptr %a_6, align 8, !tbaa !53
  %fneg = fneg double %5
  %6 = load double, ptr %t.addr, align 8, !tbaa !12
  %7 = load double, ptr %s.addr, align 8, !tbaa !12
  %sub = fsub double %6, %7
  %mul7 = fmul double %fneg, %sub
  %call8 = call double @exp(double noundef %mul7) #14, !tbaa !51
  store double %call8, ptr %exp1, align 8, !tbaa !12
  call void @llvm.lifetime.start.p0(i64 8, ptr %exp2) #14
  %a_9 = getelementptr inbounds nuw %"class.QuantLib::HullWhiteForwardProcess", ptr %this1, i32 0, i32 3
  %8 = load double, ptr %a_9, align 8, !tbaa !53
  %fneg10 = fneg double %8
  %9 = load double, ptr %T.addr, align 8, !tbaa !12
  %10 = load double, ptr %t.addr, align 8, !tbaa !12
  %sub11 = fsub double %9, %10
  %mul12 = fmul double %fneg10, %sub11
  %call13 = call double @exp(double noundef %mul12) #14, !tbaa !51
  store double %call13, ptr %exp2, align 8, !tbaa !12
  call void @llvm.lifetime.start.p0(i64 8, ptr %exp3) #14
  %a_14 = getelementptr inbounds nuw %"class.QuantLib::HullWhiteForwardProcess", ptr %this1, i32 0, i32 3
  %11 = load double, ptr %a_14, align 8, !tbaa !53
  %fneg15 = fneg double %11
  %12 = load double, ptr %T.addr, align 8, !tbaa !12
  %13 = load double, ptr %t.addr, align 8, !tbaa !12
  %add = fadd double %12, %13
  %14 = load double, ptr %s.addr, align 8, !tbaa !12
  %15 = call double @llvm.fmuladd.f64(double -2.000000e+00, double %14, double %add)
  %mul17 = fmul double %fneg15, %15
  %call18 = call double @exp(double noundef %mul17) #14, !tbaa !51
  store double %call18, ptr %exp3, align 8, !tbaa !12
  %16 = load double, ptr %coeff, align 8, !tbaa !12
  %17 = load double, ptr %exp1, align 8, !tbaa !12
  %sub19 = fsub double 1.000000e+00, %17
  %18 = load double, ptr %coeff, align 8, !tbaa !12
  %mul21 = fmul double 5.000000e-01, %18
  %19 = load double, ptr %exp2, align 8, !tbaa !12
  %20 = load double, ptr %exp3, align 8, !tbaa !12
  %sub22 = fsub double %19, %20
  %mul23 = fmul double %mul21, %sub22
  %neg = fneg double %mul23
  %21 = call double @llvm.fmuladd.f64(double %16, double %sub19, double %neg)
  store double %21, ptr %retval, align 8
  call void @llvm.lifetime.end.p0(i64 8, ptr %exp3) #14
  call void @llvm.lifetime.end.p0(i64 8, ptr %exp2) #14
  call void @llvm.lifetime.end.p0(i64 8, ptr %exp1) #14
  call void @llvm.lifetime.end.p0(i64 8, ptr %coeff) #14
  br label %return

if.else:                                          ; preds = %entry
  call void @llvm.lifetime.start.p0(i64 8, ptr %coeff24) #14
  %sigma_25 = getelementptr inbounds nuw %"class.QuantLib::HullWhiteForwardProcess", ptr %this1, i32 0, i32 4
  %22 = load double, ptr %sigma_25, align 8, !tbaa !56
  %sigma_26 = getelementptr inbounds nuw %"class.QuantLib::HullWhiteForwardProcess", ptr %this1, i32 0, i32 4
  %23 = load double, ptr %sigma_26, align 8, !tbaa !56
  %mul27 = fmul double %22, %23
  %div28 = fdiv double %mul27, 2.000000e+00
  store double %div28, ptr %coeff24, align 8, !tbaa !12
  %24 = load double, ptr %coeff24, align 8, !tbaa !12
  %25 = load double, ptr %t.addr, align 8, !tbaa !12
  %26 = load double, ptr %s.addr, align 8, !tbaa !12
  %sub29 = fsub double %25, %26
  %mul30 = fmul double %24, %sub29
  %27 = load double, ptr %T.addr, align 8, !tbaa !12
  %28 = load double, ptr %t.addr, align 8, !tbaa !12
  %neg32 = fneg double %28
  %29 = call double @llvm.fmuladd.f64(double 2.000000e+00, double %27, double %neg32)
  %30 = load double, ptr %s.addr, align 8, !tbaa !12
  %sub33 = fsub double %29, %30
  %mul34 = fmul double %mul30, %sub33
  store double %mul34, ptr %retval, align 8
  call void @llvm.lifetime.end.p0(i64 8, ptr %coeff24) #14
  br label %return

return:                                           ; preds = %if.else, %if.then
  %31 = load double, ptr %retval, align 8
  ret double %31
}

; Function Attrs: mustprogress uwtable
define linkonce_odr noundef ptr @_ZNK5boost10shared_ptrIN8QuantLib24OrnsteinUhlenbeckProcessEEptEv(ptr noundef nonnull align 8 dereferenceable(16) %this) #2 comdat align 2 {
entry:
  %this.addr = alloca ptr, align 8
  store ptr %this, ptr %this.addr, align 8, !tbaa !3
  %this1 = load ptr, ptr %this.addr, align 8
  %px = getelementptr inbounds nuw %"class.boost::shared_ptr.10", ptr %this1, i32 0, i32 0
  %0 = load ptr, ptr %px, align 8, !tbaa !50
  %cmp = icmp ne ptr %0, null
  %lnot = xor i1 %cmp, true
  %lnot2 = xor i1 %lnot, true
  %conv = zext i1 %lnot2 to i64
  %expval = call i64 @llvm.expect.i64(i64 %conv, i64 1)
  %tobool = icmp ne i64 %expval, 0
  br i1 %tobool, label %cond.true, label %cond.false

cond.true:                                        ; preds = %entry
  br label %cond.end

cond.false:                                       ; preds = %entry
  call void @_ZN5boost16assertion_failedEPKcS1_S1_l(ptr noundef @.str.6, ptr noundef @__PRETTY_FUNCTION__._ZNK5boost10shared_ptrIN8QuantLib24OrnsteinUhlenbeckProcessEEptEv, ptr noundef @.str.7, i64 noundef 784)
  br label %cond.end

cond.end:                                         ; preds = %cond.false, %cond.true
  %px3 = getelementptr inbounds nuw %"class.boost::shared_ptr.10", ptr %this1, i32 0, i32 0
  %1 = load ptr, ptr %px3, align 8, !tbaa !50
  ret ptr %1
}

; Function Attrs: mustprogress uwtable
define noundef double @_ZNK8QuantLib23HullWhiteForwardProcess11expectationEddd(ptr noundef nonnull align 8 dereferenceable(200) %this, double noundef %t0, double noundef %x0, double noundef %dt) unnamed_addr #2 align 2 {
entry:
  %this.addr = alloca ptr, align 8
  %t0.addr = alloca double, align 8
  %x0.addr = alloca double, align 8
  %dt.addr = alloca double, align 8
  store ptr %this, ptr %this.addr, align 8, !tbaa !3
  store double %t0, ptr %t0.addr, align 8, !tbaa !12
  store double %x0, ptr %x0.addr, align 8, !tbaa !12
  store double %dt, ptr %dt.addr, align 8, !tbaa !12
  %this1 = load ptr, ptr %this.addr, align 8
  %process_ = getelementptr inbounds nuw %"class.QuantLib::HullWhiteForwardProcess", ptr %this1, i32 0, i32 1
  %call = call noundef ptr @_ZNK5boost10shared_ptrIN8QuantLib24OrnsteinUhlenbeckProcessEEptEv(ptr noundef nonnull align 8 dereferenceable(16) %process_)
  %0 = load double, ptr %t0.addr, align 8, !tbaa !12
  %1 = load double, ptr %x0.addr, align 8, !tbaa !12
  %2 = load double, ptr %dt.addr, align 8, !tbaa !12
  %vtable = load ptr, ptr %call, align 8, !tbaa !14
  %vfn = getelementptr inbounds ptr, ptr %vtable, i64 18
  %3 = load ptr, ptr %vfn, align 8
  %call2 = call noundef double %3(ptr noundef nonnull align 8 dereferenceable(176) %call, double noundef %0, double noundef %1, double noundef %2)
  %4 = load double, ptr %t0.addr, align 8, !tbaa !12
  %5 = load double, ptr %dt.addr, align 8, !tbaa !12
  %add = fadd double %4, %5
  %call3 = call noundef double @_ZNK8QuantLib23HullWhiteForwardProcess5alphaEd(ptr noundef nonnull align 8 dereferenceable(200) %this1, double noundef %add)
  %add4 = fadd double %call2, %call3
  %6 = load double, ptr %t0.addr, align 8, !tbaa !12
  %call5 = call noundef double @_ZNK8QuantLib23HullWhiteForwardProcess5alphaEd(ptr noundef nonnull align 8 dereferenceable(200) %this1, double noundef %6)
  %a_ = getelementptr inbounds nuw %"class.QuantLib::HullWhiteForwardProcess", ptr %this1, i32 0, i32 3
  %7 = load double, ptr %a_, align 8, !tbaa !53
  %fneg = fneg double %7
  %8 = load double, ptr %dt.addr, align 8, !tbaa !12
  %mul = fmul double %fneg, %8
  %call6 = call double @exp(double noundef %mul) #14, !tbaa !51
  %neg = fneg double %call5
  %9 = call double @llvm.fmuladd.f64(double %neg, double %call6, double %add4)
  %10 = load double, ptr %t0.addr, align 8, !tbaa !12
  %11 = load double, ptr %t0.addr, align 8, !tbaa !12
  %12 = load double, ptr %dt.addr, align 8, !tbaa !12
  %add8 = fadd double %11, %12
  %T_ = getelementptr inbounds nuw %"class.QuantLib::ForwardMeasureProcess1D", ptr %this1, i32 0, i32 1
  %13 = load double, ptr %T_, align 8, !tbaa !57
  %call9 = call noundef double @_ZNK8QuantLib23HullWhiteForwardProcess3M_TEddd(ptr noundef nonnull align 8 dereferenceable(200) %this1, double noundef %10, double noundef %add8, double noundef %13)
  %sub = fsub double %9, %call9
  ret double %sub
}