; Function Attrs: mustprogress uwtable
define noundef double @_ZNK8QuantLib23HullWhiteForwardProcess11expectationEddd(ptr noundef nonnull align 8 dereferenceable(200) %this, double noundef %t0, double noundef %x0, double noundef %dt) unnamed_addr #6 align 2 {
entry:
  %process_ = getelementptr inbounds nuw i8, ptr %this, i64 152
  %0 = load ptr, ptr %process_, align 8, !tbaa !40
  %cmp.not.i = icmp eq ptr %0, null
  br i1 %cmp.not.i, label %cond.false.i, label %_ZNK5boost10shared_ptrIN8QuantLib24OrnsteinUhlenbeckProcessEEptEv.exit, !prof !33

cond.false.i:                                     ; preds = %entry
  tail call void @_ZN5boost16assertion_failedEPKcS1_S1_l(ptr noundef nonnull @.str.6, ptr noundef nonnull @__PRETTY_FUNCTION__._ZNK5boost10shared_ptrIN8QuantLib24OrnsteinUhlenbeckProcessEEptEv, ptr noundef nonnull @.str.7, i64 noundef 784)
  %.pre.i = load ptr, ptr %process_, align 8, !tbaa !40
  br label %_ZNK5boost10shared_ptrIN8QuantLib24OrnsteinUhlenbeckProcessEEptEv.exit

_ZNK5boost10shared_ptrIN8QuantLib24OrnsteinUhlenbeckProcessEEptEv.exit: ; preds = %entry, %cond.false.i
  %1 = phi ptr [ %0, %entry ], [ %.pre.i, %cond.false.i ]
  %vtable = load ptr, ptr %1, align 8, !tbaa !28
  %vfn = getelementptr inbounds i8, ptr %vtable, i64 144
  %2 = load ptr, ptr %vfn, align 8
  %call2 = tail call noundef double %2(ptr noundef nonnull align 8 dereferenceable(176) %1, double noundef %t0, double noundef %x0, double noundef %dt)
  %add = fadd double %t0, %dt
  %call3 = tail call noundef double @_ZNK8QuantLib23HullWhiteForwardProcess5alphaEd(ptr noundef nonnull align 8 dereferenceable(200) %this, double noundef %add)
  %call5 = tail call noundef double @_ZNK8QuantLib23HullWhiteForwardProcess5alphaEd(ptr noundef nonnull align 8 dereferenceable(200) %this, double noundef %t0)
  %a_ = getelementptr inbounds nuw i8, ptr %this, i64 184
  %3 = load double, ptr %a_, align 8, !tbaa !74
  %fneg = fneg double %3
  %mul = fmul double %dt, %fneg
  %call6 = tail call double @exp(double noundef %mul) #25, !tbaa !73
  %T_ = getelementptr inbounds nuw i8, ptr %this, i64 144
  %4 = load double, ptr %T_, align 8, !tbaa !78
  %cmp.i = fcmp ogt double %3, 0x3CB0000000000000
  %sigma_.i = getelementptr inbounds nuw i8, ptr %this, i64 192
  %5 = load double, ptr %sigma_.i, align 8, !tbaa !77
  %mul.i = fmul double %5, %5
  br i1 %cmp.i, label %if.then.i, label %if.else.i

if.then.i:                                        ; preds = %_ZNK5boost10shared_ptrIN8QuantLib24OrnsteinUhlenbeckProcessEEptEv.exit
  %mul5.i = fmul double %3, %3
  %div.i = fdiv double %mul.i, %mul5.i
  %sub.i = fsub double %add, %t0
  %mul7.i = fmul double %sub.i, %fneg
  %call8.i = tail call double @exp(double noundef %mul7.i) #25, !tbaa !73
  %sub11.i = fsub double %4, %add
  %mul12.i = fmul double %sub11.i, %fneg
  %call13.i = tail call double @exp(double noundef %mul12.i) #25, !tbaa !73
  %add.i = fadd double %add, %4
  %6 = tail call double @llvm.fmuladd.f64(double %t0, double -2.000000e+00, double %add.i)
  %mul17.i = fmul double %6, %fneg
  %call18.i = tail call double @exp(double noundef %mul17.i) #25, !tbaa !73
  %sub19.i = fsub double 1.000000e+00, %call8.i
  %mul21.i = fmul double %div.i, 5.000000e-01
  %sub22.i = fsub double %call13.i, %call18.i
  %7 = fneg double %sub22.i
  %neg.i = fmul double %mul21.i, %7
  %8 = tail call double @llvm.fmuladd.f64(double %div.i, double %sub19.i, double %neg.i)
  br label %_ZNK8QuantLib23HullWhiteForwardProcess3M_TEddd.exit

if.else.i:                                        ; preds = %_ZNK5boost10shared_ptrIN8QuantLib24OrnsteinUhlenbeckProcessEEptEv.exit
  %div28.i = fmul double %mul.i, 5.000000e-01
  %sub29.i = fsub double %add, %t0
  %mul30.i = fmul double %sub29.i, %div28.i
  %neg32.i = fneg double %add
  %9 = tail call double @llvm.fmuladd.f64(double %4, double 2.000000e+00, double %neg32.i)
  %sub33.i = fsub double %9, %t0
  %mul34.i = fmul double %sub33.i, %mul30.i
  br label %_ZNK8QuantLib23HullWhiteForwardProcess3M_TEddd.exit

_ZNK8QuantLib23HullWhiteForwardProcess3M_TEddd.exit: ; preds = %if.then.i, %if.else.i
  %retval.0.i = phi double [ %8, %if.then.i ], [ %mul34.i, %if.else.i ]
  %neg = fneg double %call5
  %add4 = fadd double %call2, %call3
  %10 = tail call double @llvm.fmuladd.f64(double %neg, double %call6, double %add4)
  %sub = fsub double %10, %retval.0.i
  ret double %sub
}